target datalayout = "e-m:e-p270:32:32-p271:32:32-p272:64:64-i64:64-i128:128-f80:128-n8:16:32:64-S128"
target triple = "x86_64-unknown-linux-gnu"

%struct.bf_key_st = type { [18 x i32], [1024 x i32] }

; Function Attrs: nounwind uwtable
define hidden void @BF_set_key(ptr noundef %key, i64 noundef %len, ptr noundef %data) #0 {
entry:
  %key.addr = alloca ptr, align 8
  %len.addr = alloca i64, align 8
  %data.addr = alloca ptr, align 8
  %i = alloca i32, align 4
  %p = alloca ptr, align 8
  %ri = alloca i32, align 4
  %in = alloca [2 x i32], align 4
  %d = alloca ptr, align 8
  %end = alloca ptr, align 8
  store ptr %key, ptr %key.addr, align 8
  store i64 %len, ptr %len.addr, align 8
  store ptr %data, ptr %data.addr, align 8
  %0 = load ptr, ptr %key.addr, align 8
  call void @llvm.memcpy.p0.p0.i64(ptr align 4 %0, ptr align 4 @bf_init, i64 4168, i1 false)
  %1 = load ptr, ptr %key.addr, align 8
  %P = getelementptr inbounds %struct.bf_key_st, ptr %1, i32 0, i32 0
  %arraydecay = getelementptr inbounds [18 x i32], ptr %P, i64 0, i64 0
  store ptr %arraydecay, ptr %p, align 8
  %2 = load i64, ptr %len.addr, align 8
  %cmp = icmp ugt i64 %2, 72
  br i1 %cmp, label %if.then, label %if.end

if.then:                                          ; preds = %entry
  store i64 72, ptr %len.addr, align 8
  br label %if.end

if.end:                                           ; preds = %if.then, %entry
  %3 = load ptr, ptr %data.addr, align 8
  store ptr %3, ptr %d, align 8
  %4 = load ptr, ptr %data.addr, align 8
  %5 = load i64, ptr %len.addr, align 8
  %arrayidx = getelementptr inbounds i8, ptr %4, i64 %5
  store ptr %arrayidx, ptr %end, align 8
  store i32 0, ptr %i, align 4
  br label %for.cond

for.cond:                                         ; preds = %for.inc, %if.end
  %6 = load i32, ptr %i, align 4
  %cmp1 = icmp slt i32 %6, 18
  br i1 %cmp1, label %for.body, label %for.end

for.body:                                         ; preds = %for.cond
  %7 = load ptr, ptr %d, align 8
  %incdec.ptr = getelementptr inbounds i8, ptr %7, i32 1
  store ptr %incdec.ptr, ptr %d, align 8
  %8 = load i8, ptr %7, align 1
  %conv = zext i8 %8 to i32
  store i32 %conv, ptr %ri, align 4
  %9 = load ptr, ptr %d, align 8
  %10 = load ptr, ptr %end, align 8
  %cmp2 = icmp uge ptr %9, %10
  br i1 %cmp2, label %if.then4, label %if.end5

if.then4:                                         ; preds = %for.body
  %11 = load ptr, ptr %data.addr, align 8
  store ptr %11, ptr %d, align 8
  br label %if.end5

if.end5:                                          ; preds = %if.then4, %for.body
  %12 = load i32, ptr %ri, align 4
  %shl = shl i32 %12, 8
  store i32 %shl, ptr %ri, align 4
  %13 = load ptr, ptr %d, align 8
  %incdec.ptr6 = getelementptr inbounds i8, ptr %13, i32 1
  store ptr %incdec.ptr6, ptr %d, align 8
  %14 = load i8, ptr %13, align 1
  %conv7 = zext i8 %14 to i32
  %15 = load i32, ptr %ri, align 4
  %or = or i32 %15, %conv7
  store i32 %or, ptr %ri, align 4
  %16 = load ptr, ptr %d, align 8
  %17 = load ptr, ptr %end, align 8
  %cmp8 = icmp uge ptr %16, %17
  br i1 %cmp8, label %if.then10, label %if.end11

if.then10:                                        ; preds = %if.end5
  %18 = load ptr, ptr %data.addr, align 8
  store ptr %18, ptr %d, align 8
  br label %if.end11

if.end11:                                         ; preds = %if.then10, %if.end5
  %19 = load i32, ptr %ri, align 4
  %shl12 = shl i32 %19, 8
  store i32 %shl12, ptr %ri, align 4
  %20 = load ptr, ptr %d, align 8
  %incdec.ptr13 = getelementptr inbounds i8, ptr %20, i32 1
  store ptr %incdec.ptr13, ptr %d, align 8
  %21 = load i8, ptr %20, align 1
  %conv14 = zext i8 %21 to i32
  %22 = load i32, ptr %ri, align 4
  %or15 = or i32 %22, %conv14
  store i32 %or15, ptr %ri, align 4
  %23 = load ptr, ptr %d, align 8
  %24 = load ptr, ptr %end, align 8
  %cmp16 = icmp uge ptr %23, %24
  br i1 %cmp16, label %if.then18, label %if.end19

if.then18:                                        ; preds = %if.end11
  %25 = load ptr, ptr %data.addr, align 8
  store ptr %25, ptr %d, align 8
  br label %if.end19

if.end19:                                         ; preds = %if.then18, %if.end11
  %26 = load i32, ptr %ri, align 4
  %shl20 = shl i32 %26, 8
  store i32 %shl20, ptr %ri, align 4
  %27 = load ptr, ptr %d, align 8
  %incdec.ptr21 = getelementptr inbounds i8, ptr %27, i32 1
  store ptr %incdec.ptr21, ptr %d, align 8
  %28 = load i8, ptr %27, align 1
  %conv22 = zext i8 %28 to i32
  %29 = load i32, ptr %ri, align 4
  %or23 = or i32 %29, %conv22
  store i32 %or23, ptr %ri, align 4
  %30 = load ptr, ptr %d, align 8
  %31 = load ptr, ptr %end, align 8
  %cmp24 = icmp uge ptr %30, %31
  br i1 %cmp24, label %if.then26, label %if.end27

if.then26:                                        ; preds = %if.end19
  %32 = load ptr, ptr %data.addr, align 8
  store ptr %32, ptr %d, align 8
  br label %if.end27

if.end27:                                         ; preds = %if.then26, %if.end19
  %33 = load i32, ptr %ri, align 4
  %34 = load ptr, ptr %p, align 8
  %35 = load i32, ptr %i, align 4
  %idxprom = sext i32 %35 to i64
  %arrayidx28 = getelementptr inbounds i32, ptr %34, i64 %idxprom
  %36 = load i32, ptr %arrayidx28, align 4
  %xor = xor i32 %36, %33
  store i32 %xor, ptr %arrayidx28, align 4
  br label %for.inc

for.inc:                                          ; preds = %if.end27
  %37 = load i32, ptr %i, align 4
  %inc = add nsw i32 %37, 1
  store i32 %inc, ptr %i, align 4
  br label %for.cond, !llvm.loop !10

for.end:                                          ; preds = %for.cond
  %arrayidx29 = getelementptr inbounds [2 x i32], ptr %in, i64 0, i64 0
  store i32 0, ptr %arrayidx29, align 4
  %arrayidx30 = getelementptr inbounds [2 x i32], ptr %in, i64 0, i64 1
  store i32 0, ptr %arrayidx30, align 4
  store i32 0, ptr %i, align 4
  br label %for.cond31

for.cond31:                                       ; preds = %for.inc42, %for.end
  %38 = load i32, ptr %i, align 4
  %cmp32 = icmp slt i32 %38, 18
  br i1 %cmp32, label %for.body34, label %for.end44

for.body34:                                       ; preds = %for.cond31
  %arraydecay35 = getelementptr inbounds [2 x i32], ptr %in, i64 0, i64 0
  %39 = load ptr, ptr %key.addr, align 8
  call void @BF_encrypt(ptr noundef %arraydecay35, ptr noundef %39)
  %arrayidx36 = getelementptr inbounds [2 x i32], ptr %in, i64 0, i64 0
  %40 = load i32, ptr %arrayidx36, align 4
  %41 = load ptr, ptr %p, align 8
  %42 = load i32, ptr %i, align 4
  %idxprom37 = sext i32 %42 to i64
  %arrayidx38 = getelementptr inbounds i32, ptr %41, i64 %idxprom37
  store i32 %40, ptr %arrayidx38, align 4
  %arrayidx39 = getelementptr inbounds [2 x i32], ptr %in, i64 0, i64 1
  %43 = load i32, ptr %arrayidx39, align 4
  %44 = load ptr, ptr %p, align 8
  %45 = load i32, ptr %i, align 4
  %add = add nsw i32 %45, 1
  %idxprom40 = sext i32 %add to i64
  %arrayidx41 = getelementptr inbounds i32, ptr %44, i64 %idxprom40
  store i32 %43, ptr %arrayidx41, align 4
  br label %for.inc42

for.inc42:                                        ; preds = %for.body34
  %46 = load i32, ptr %i, align 4
  %add43 = add nsw i32 %46, 2
  store i32 %add43, ptr %i, align 4
  br label %for.cond31, !llvm.loop !11

for.end44:                                        ; preds = %for.cond31
  %47 = load ptr, ptr %key.addr, align 8
  %S = getelementptr inbounds %struct.bf_key_st, ptr %47, i32 0, i32 1
  %arraydecay45 = getelementptr inbounds [1024 x i32], ptr %S, i64 0, i64 0
  store ptr %arraydecay45, ptr %p, align 8
  store i32 0, ptr %i, align 4
  br label %for.cond46

for.cond46:                                       ; preds = %for.inc58, %for.end44
  %48 = load i32, ptr %i, align 4
  %cmp47 = icmp slt i32 %48, 1024
  br i1 %cmp47, label %for.body49, label %for.end60

for.body49:                                       ; preds = %for.cond46
  %arraydecay50 = getelementptr inbounds [2 x i32], ptr %in, i64 0, i64 0
  %49 = load ptr, ptr %key.addr, align 8
  call void @BF_encrypt(ptr noundef %arraydecay50, ptr noundef %49)
  %arrayidx51 = getelementptr inbounds [2 x i32], ptr %in, i64 0, i64 0
  %50 = load i32, ptr %arrayidx51, align 4
  %51 = load ptr, ptr %p, align 8
  %52 = load i32, ptr %i, align 4
  %idxprom52 = sext i32 %52 to i64
  %arrayidx53 = getelementptr inbounds i32, ptr %51, i64 %idxprom52
  store i32 %50, ptr %arrayidx53, align 4
  %arrayidx54 = getelementptr inbounds [2 x i32], ptr %in, i64 0, i64 1
  %53 = load i32, ptr %arrayidx54, align 4
  %54 = load ptr, ptr %p, align 8
  %55 = load i32, ptr %i, align 4
  %add55 = add nsw i32 %55, 1
  %idxprom56 = sext i32 %add55 to i64
  %arrayidx57 = getelementptr inbounds i32, ptr %54, i64 %idxprom56
  store i32 %53, ptr %arrayidx57, align 4
  br label %for.inc58

for.inc58:                                        ; preds = %for.body49
  %56 = load i32, ptr %i, align 4
  %add59 = add nsw i32 %56, 2
  store i32 %add59, ptr %i, align 4
  br label %for.cond46, !llvm.loop !12

for.end60:                                        ; preds = %for.cond46
  ret void
}