; Function Attrs: nofree norecurse nosync nounwind memory(argmem: readwrite) uwtable
define hidden void @BF_set_key(ptr noundef initializes((0, 4168)) %key, i64 noundef %len, ptr noundef readonly %data) local_unnamed_addr #2 {
entry:
  %in = alloca [2 x i32], align 4
  tail call void @llvm.memcpy.p0.p0.i64(ptr noundef nonnull align 4 dereferenceable(4168) %key, ptr noundef nonnull align 4 dereferenceable(4168) @bf_init, i64 4168, i1 false)
  %spec.store.select = tail call i64 @llvm.umin.i64(i64 %len, i64 72)
  %arrayidx = getelementptr inbounds nuw i8, ptr %data, i64 %spec.store.select
  br label %for.body

for.body:                                         ; preds = %entry, %for.body
  %indvars.iv = phi i64 [ 0, %entry ], [ %indvars.iv.next, %for.body ]
  %d.041 = phi ptr [ %data, %entry ], [ %d.4, %for.body ]
  %incdec.ptr = getelementptr inbounds nuw i8, ptr %d.041, i64 1
  %0 = load i8, ptr %d.041, align 1
  %conv = zext i8 %0 to i32
  %cmp2.not = icmp ult ptr %incdec.ptr, %arrayidx
  %spec.select = select i1 %cmp2.not, ptr %incdec.ptr, ptr %data
  %incdec.ptr6 = getelementptr inbounds nuw i8, ptr %spec.select, i64 1
  %1 = load i8, ptr %spec.select, align 1
  %conv7 = zext i8 %1 to i32
  %cmp8.not = icmp ult ptr %incdec.ptr6, %arrayidx
  %d.2 = select i1 %cmp8.not, ptr %incdec.ptr6, ptr %data
  %2 = shl nuw nsw i32 %conv, 16
  %3 = shl nuw nsw i32 %conv7, 8
  %shl12 = or disjoint i32 %3, %2
  %incdec.ptr13 = getelementptr inbounds nuw i8, ptr %d.2, i64 1
  %4 = load i8, ptr %d.2, align 1
  %conv14 = zext i8 %4 to i32
  %or15 = or disjoint i32 %shl12, %conv14
  %cmp16.not = icmp ult ptr %incdec.ptr13, %arrayidx
  %d.3 = select i1 %cmp16.not, ptr %incdec.ptr13, ptr %data
  %shl20 = shl nuw i32 %or15, 8
  %incdec.ptr21 = getelementptr inbounds nuw i8, ptr %d.3, i64 1
  %5 = load i8, ptr %d.3, align 1
  %conv22 = zext i8 %5 to i32
  %or23 = or disjoint i32 %shl20, %conv22
  %cmp24.not = icmp ult ptr %incdec.ptr21, %arrayidx
  %d.4 = select i1 %cmp24.not, ptr %incdec.ptr21, ptr %data
  %arrayidx28 = getelementptr inbounds nuw i32, ptr %key, i64 %indvars.iv
  %6 = load i32, ptr %arrayidx28, align 4
  %xor = xor i32 %or23, %6
  store i32 %xor, ptr %arrayidx28, align 4
  %indvars.iv.next = add nuw nsw i64 %indvars.iv, 1
  %exitcond.not = icmp eq i64 %indvars.iv.next, 18
  br i1 %exitcond.not, label %for.end, label %for.body, !llvm.loop !10

for.end:                                          ; preds = %for.body
  store i32 0, ptr %in, align 4
  %arrayidx30 = getelementptr inbounds nuw i8, ptr %in, i64 4
  store i32 0, ptr %arrayidx30, align 4
  br label %for.body34

for.body34:                                       ; preds = %for.end, %for.body34
  %indvars.iv46 = phi i64 [ 0, %for.end ], [ %indvars.iv.next47, %for.body34 ]
  call void @BF_encrypt(ptr noundef nonnull %in, ptr noundef nonnull %key)
  %7 = load i32, ptr %in, align 4
  %arrayidx38 = getelementptr inbounds nuw i32, ptr %key, i64 %indvars.iv46
  store i32 %7, ptr %arrayidx38, align 4
  %8 = load i32, ptr %arrayidx30, align 4
  %9 = or disjoint i64 %indvars.iv46, 1
  %arrayidx41 = getelementptr inbounds nuw i32, ptr %key, i64 %9
  store i32 %8, ptr %arrayidx41, align 4
  %indvars.iv.next47 = add nuw nsw i64 %indvars.iv46, 2
  %cmp32 = icmp samesign ult i64 %indvars.iv46, 16
  br i1 %cmp32, label %for.body34, label %for.end44, !llvm.loop !11

for.end44:                                        ; preds = %for.body34
  %S = getelementptr inbounds nuw i8, ptr %key, i64 72
  br label %for.body49

for.body49:                                       ; preds = %for.end44, %for.body49
  %indvars.iv50 = phi i64 [ 0, %for.end44 ], [ %indvars.iv.next51, %for.body49 ]
  call void @BF_encrypt(ptr noundef nonnull %in, ptr noundef nonnull %key)
  %10 = load i32, ptr %in, align 4
  %arrayidx53 = getelementptr inbounds nuw i32, ptr %S, i64 %indvars.iv50
  store i32 %10, ptr %arrayidx53, align 4
  %11 = load i32, ptr %arrayidx30, align 4
  %12 = or disjoint i64 %indvars.iv50, 1
  %arrayidx57 = getelementptr inbounds nuw i32, ptr %S, i64 %12
  store i32 %11, ptr %arrayidx57, align 4
  %indvars.iv.next51 = add nuw nsw i64 %indvars.iv50, 2
  %cmp47 = icmp samesign ult i64 %indvars.iv50, 1022
  br i1 %cmp47, label %for.body49, label %for.end60, !llvm.loop !12

for.end60:                                        ; preds = %for.body49
  ret void
}